target datalayout = "e-m:e-p270:32:32-p271:32:32-p272:64:64-i64:64-i128:128-f80:128-n8:16:32:64-S128"
target triple = "x86_64-pc-linux-gnu"

; Function Attrs: nounwind uwtable
define internal void @shuffle_bytes_2130_c(ptr noundef %0, ptr noundef %1, i32 noundef %2) #0 {
  %4 = alloca ptr, align 8
  %5 = alloca ptr, align 8
  %6 = alloca i32, align 4
  %7 = alloca i32, align 4
  store ptr %0, ptr %4, align 8, !tbaa !4
  store ptr %1, ptr %5, align 8, !tbaa !4
  store i32 %2, ptr %6, align 4, !tbaa !9
  call void @llvm.lifetime.start.p0(i64 4, ptr %7) #5
  store i32 0, ptr %7, align 4, !tbaa !9
  br label %8

8:                                                ; preds = %57, %3
  %9 = load i32, ptr %7, align 4, !tbaa !9
  %10 = load i32, ptr %6, align 4, !tbaa !9
  %11 = icmp slt i32 %9, %10
  br i1 %11, label %12, label %60

12:                                               ; preds = %8
  %13 = load ptr, ptr %4, align 8, !tbaa !4
  %14 = load i32, ptr %7, align 4, !tbaa !9
  %15 = add nsw i32 %14, 2
  %16 = sext i32 %15 to i64
  %17 = getelementptr inbounds i8, ptr %13, i64 %16
  %18 = load i8, ptr %17, align 1, !tbaa !13
  %19 = load ptr, ptr %5, align 8, !tbaa !4
  %20 = load i32, ptr %7, align 4, !tbaa !9
  %21 = add nsw i32 %20, 0
  %22 = sext i32 %21 to i64
  %23 = getelementptr inbounds i8, ptr %19, i64 %22
  store i8 %18, ptr %23, align 1, !tbaa !13
  %24 = load ptr, ptr %4, align 8, !tbaa !4
  %25 = load i32, ptr %7, align 4, !tbaa !9
  %26 = add nsw i32 %25, 1
  %27 = sext i32 %26 to i64
  %28 = getelementptr inbounds i8, ptr %24, i64 %27
  %29 = load i8, ptr %28, align 1, !tbaa !13
  %30 = load ptr, ptr %5, align 8, !tbaa !4
  %31 = load i32, ptr %7, align 4, !tbaa !9
  %32 = add nsw i32 %31, 1
  %33 = sext i32 %32 to i64
  %34 = getelementptr inbounds i8, ptr %30, i64 %33
  store i8 %29, ptr %34, align 1, !tbaa !13
  %35 = load ptr, ptr %4, align 8, !tbaa !4
  %36 = load i32, ptr %7, align 4, !tbaa !9
  %37 = add nsw i32 %36, 3
  %38 = sext i32 %37 to i64
  %39 = getelementptr inbounds i8, ptr %35, i64 %38
  %40 = load i8, ptr %39, align 1, !tbaa !13
  %41 = load ptr, ptr %5, align 8, !tbaa !4
  %42 = load i32, ptr %7, align 4, !tbaa !9
  %43 = add nsw i32 %42, 2
  %44 = sext i32 %43 to i64
  %45 = getelementptr inbounds i8, ptr %41, i64 %44
  store i8 %40, ptr %45, align 1, !tbaa !13
  %46 = load ptr, ptr %4, align 8, !tbaa !4
  %47 = load i32, ptr %7, align 4, !tbaa !9
  %48 = add nsw i32 %47, 0
  %49 = sext i32 %48 to i64
  %50 = getelementptr inbounds i8, ptr %46, i64 %49
  %51 = load i8, ptr %50, align 1, !tbaa !13
  %52 = load ptr, ptr %5, align 8, !tbaa !4
  %53 = load i32, ptr %7, align 4, !tbaa !9
  %54 = add nsw i32 %53, 3
  %55 = sext i32 %54 to i64
  %56 = getelementptr inbounds i8, ptr %52, i64 %55
  store i8 %51, ptr %56, align 1, !tbaa !13
  br label %57

57:                                               ; preds = %12
  %58 = load i32, ptr %7, align 4, !tbaa !9
  %59 = add nsw i32 %58, 4
  store i32 %59, ptr %7, align 4, !tbaa !9
  br label %8, !llvm.loop !74

60:                                               ; preds = %8
  call void @llvm.lifetime.end.p0(i64 4, ptr %7) #5
  ret void
}